target datalayout = "e-m:e-p270:32:32-p271:32:32-p272:64:64-i64:64-i128:128-f80:128-n8:16:32:64-S128"
target triple = "x86_64-pc-linux-gnu"

%"class.OpenColorIO_v2_5dev::IndexMapping" = type { ptr, i64, [3 x %"class.std::vector"] }
%"class.std::vector" = type { %"struct.std::_Vector_base" }
%"struct.std::_Vector_base" = type { %"struct.std::_Vector_base<std::pair<float, float>, std::allocator<std::pair<float, float>>>::_Vector_impl" }
%"struct.std::_Vector_base<std::pair<float, float>, std::allocator<std::pair<float, float>>>::_Vector_impl" = type { %"struct.std::_Vector_base<std::pair<float, float>, std::allocator<std::pair<float, float>>>::_Vector_impl_data" }
%"struct.std::_Vector_base<std::pair<float, float>, std::allocator<std::pair<float, float>>>::_Vector_impl_data" = type { ptr, ptr, ptr }
%"struct.std::pair" = type { float, float }

@_ZTIN19OpenColorIO_v2_5dev9ExceptionE = external constant ptr
@.str.3 = private unnamed_addr constant [33 x i8] c"Index values must be increasing.\00", align 1

; Function Attrs: mustprogress nounwind uwtable
define linkonce_odr hidden noundef nonnull align 4 dereferenceable(8) ptr @_ZNKSt6vectorISt4pairIffESaIS1_EEixEm(ptr noundef nonnull align 8 dereferenceable(24) %0, i64 noundef %1) #1 comdat align 2 {
  %3 = alloca ptr, align 8
  %4 = alloca i64, align 8
  store ptr %0, ptr %3, align 8, !tbaa !14
  store i64 %1, ptr %4, align 8, !tbaa !8
  %5 = load ptr, ptr %3, align 8
  %6 = getelementptr inbounds nuw %"struct.std::_Vector_base", ptr %5, i32 0, i32 0
  %7 = getelementptr inbounds nuw %"struct.std::_Vector_base<std::pair<float, float>, std::allocator<std::pair<float, float>>>::_Vector_impl_data", ptr %6, i32 0, i32 0
  %8 = load ptr, ptr %7, align 8, !tbaa !16
  %9 = load i64, ptr %4, align 8, !tbaa !8
  %10 = getelementptr inbounds nuw %"struct.std::pair", ptr %8, i64 %9
  ret ptr %10
}

; Function Attrs: mustprogress uwtable
define hidden void @_ZNK19OpenColorIO_v2_5dev12IndexMapping7getPairEmRfS1_(ptr noundef nonnull align 8 dereferenceable(88) %0, i64 noundef %1, ptr noundef nonnull align 4 dereferenceable(4) %2, ptr noundef nonnull align 4 dereferenceable(4) %3) #0 align 2 {
  %5 = alloca ptr, align 8
  %6 = alloca i64, align 8
  %7 = alloca ptr, align 8
  %8 = alloca ptr, align 8
  store ptr %0, ptr %5, align 8, !tbaa !3
  store i64 %1, ptr %6, align 8, !tbaa !8
  store ptr %2, ptr %7, align 8, !tbaa !28
  store ptr %3, ptr %8, align 8, !tbaa !28
  %9 = load ptr, ptr %5, align 8
  %10 = load i64, ptr %6, align 8, !tbaa !8
  call void @_ZNK19OpenColorIO_v2_5dev12IndexMapping13validateIndexEm(ptr noundef nonnull align 8 dereferenceable(88) %9, i64 noundef %10)
  %11 = getelementptr inbounds nuw %"class.OpenColorIO_v2_5dev::IndexMapping", ptr %9, i32 0, i32 2
  %12 = getelementptr inbounds [3 x %"class.std::vector"], ptr %11, i64 0, i64 0
  %13 = load i64, ptr %6, align 8, !tbaa !8
  %14 = call noundef nonnull align 4 dereferenceable(8) ptr @_ZNKSt6vectorISt4pairIffESaIS1_EEixEm(ptr noundef nonnull align 8 dereferenceable(24) %12, i64 noundef %13) #14
  %15 = getelementptr inbounds nuw %"struct.std::pair", ptr %14, i32 0, i32 0
  %16 = load float, ptr %15, align 4, !tbaa !30
  %17 = load ptr, ptr %7, align 8, !tbaa !28
  store float %16, ptr %17, align 4, !tbaa !33
  %18 = getelementptr inbounds nuw %"class.OpenColorIO_v2_5dev::IndexMapping", ptr %9, i32 0, i32 2
  %19 = getelementptr inbounds [3 x %"class.std::vector"], ptr %18, i64 0, i64 0
  %20 = load i64, ptr %6, align 8, !tbaa !8
  %21 = call noundef nonnull align 4 dereferenceable(8) ptr @_ZNKSt6vectorISt4pairIffESaIS1_EEixEm(ptr noundef nonnull align 8 dereferenceable(24) %19, i64 noundef %20) #14
  %22 = getelementptr inbounds nuw %"struct.std::pair", ptr %21, i32 0, i32 1
  %23 = load float, ptr %22, align 4, !tbaa !34
  %24 = load ptr, ptr %8, align 8, !tbaa !28
  store float %23, ptr %24, align 4, !tbaa !33
  ret void
}

; Function Attrs: mustprogress uwtable
define hidden void @_ZNK19OpenColorIO_v2_5dev12IndexMapping8validateEv(ptr noundef nonnull align 8 dereferenceable(88) %0) #0 align 2 personality ptr @__gxx_personality_v0 {
  %2 = alloca ptr, align 8
  %3 = alloca float, align 4
  %4 = alloca float, align 4
  %5 = alloca float, align 4
  %6 = alloca float, align 4
  %7 = alloca i32, align 4
  %8 = alloca ptr, align 8
  %9 = alloca i32, align 4
  store ptr %0, ptr %2, align 8, !tbaa !3
  %10 = load ptr, ptr %2, align 8
  call void @llvm.lifetime.start.p0(i64 4, ptr %3) #14
  call void @llvm.lifetime.start.p0(i64 4, ptr %4) #14
  call void @llvm.lifetime.start.p0(i64 4, ptr %5) #14
  call void @llvm.lifetime.start.p0(i64 4, ptr %6) #14
  call void @llvm.lifetime.start.p0(i64 4, ptr %7) #14
  store i32 1, ptr %7, align 4, !tbaa !35
  br label %11

11:                                               ; preds = %39, %1
  %12 = load i32, ptr %7, align 4, !tbaa !35
  %13 = zext i32 %12 to i64
  %14 = getelementptr inbounds nuw %"class.OpenColorIO_v2_5dev::IndexMapping", ptr %10, i32 0, i32 1
  %15 = load i64, ptr %14, align 8, !tbaa !12
  %16 = icmp ult i64 %13, %15
  br i1 %16, label %18, label %17

17:                                               ; preds = %11
  call void @llvm.lifetime.end.p0(i64 4, ptr %7) #14
  br label %42

18:                                               ; preds = %11
  %19 = load i32, ptr %7, align 4, !tbaa !35
  %20 = zext i32 %19 to i64
  call void @_ZNK19OpenColorIO_v2_5dev12IndexMapping7getPairEmRfS1_(ptr noundef nonnull align 8 dereferenceable(88) %10, i64 noundef %20, ptr noundef nonnull align 4 dereferenceable(4) %3, ptr noundef nonnull align 4 dereferenceable(4) %4)
  %21 = load i32, ptr %7, align 4, !tbaa !35
  %22 = sub i32 %21, 1
  %23 = zext i32 %22 to i64
  call void @_ZNK19OpenColorIO_v2_5dev12IndexMapping7getPairEmRfS1_(ptr noundef nonnull align 8 dereferenceable(88) %10, i64 noundef %23, ptr noundef nonnull align 4 dereferenceable(4) %5, ptr noundef nonnull align 4 dereferenceable(4) %6)
  %24 = load float, ptr %3, align 4, !tbaa !33
  %25 = load float, ptr %5, align 4, !tbaa !33
  %26 = fcmp ole float %24, %25
  br i1 %26, label %31, label %27

27:                                               ; preds = %18
  %28 = load float, ptr %4, align 4, !tbaa !33
  %29 = load float, ptr %6, align 4, !tbaa !33
  %30 = fcmp ole float %28, %29
  br i1 %30, label %31, label %38

31:                                               ; preds = %27, %18
  %32 = call ptr @__cxa_allocate_exception(i64 16) #14
  invoke void @_ZN19OpenColorIO_v2_5dev9ExceptionC1EPKc(ptr noundef nonnull align 8 dereferenceable(16) %32, ptr noundef @.str.3)
          to label %33 unwind label %34

33:                                               ; preds = %31
  call void @__cxa_throw(ptr %32, ptr @_ZTIN19OpenColorIO_v2_5dev9ExceptionE, ptr @_ZN19OpenColorIO_v2_5dev9ExceptionD1Ev) #17
  unreachable

34:                                               ; preds = %31
  %35 = landingpad { ptr, i32 }
          cleanup
  %36 = extractvalue { ptr, i32 } %35, 0
  store ptr %36, ptr %8, align 8
  %37 = extractvalue { ptr, i32 } %35, 1
  store i32 %37, ptr %9, align 4
  call void @__cxa_free_exception(ptr %32) #14
  call void @llvm.lifetime.end.p0(i64 4, ptr %7) #14
  call void @llvm.lifetime.end.p0(i64 4, ptr %6) #14
  call void @llvm.lifetime.end.p0(i64 4, ptr %5) #14
  call void @llvm.lifetime.end.p0(i64 4, ptr %4) #14
  call void @llvm.lifetime.end.p0(i64 4, ptr %3) #14
  br label %43

38:                                               ; preds = %27
  br label %39

39:                                               ; preds = %38
  %40 = load i32, ptr %7, align 4, !tbaa !35
  %41 = add i32 %40, 1
  store i32 %41, ptr %7, align 4, !tbaa !35
  br label %11, !llvm.loop !37

42:                                               ; preds = %17
  call void @llvm.lifetime.end.p0(i64 4, ptr %6) #14
  call void @llvm.lifetime.end.p0(i64 4, ptr %5) #14
  call void @llvm.lifetime.end.p0(i64 4, ptr %4) #14
  call void @llvm.lifetime.end.p0(i64 4, ptr %3) #14
  ret void

43:                                               ; preds = %34
  %44 = load ptr, ptr %8, align 8
  %45 = load i32, ptr %9, align 4
  %46 = insertvalue { ptr, i32 } poison, ptr %44, 0
  %47 = insertvalue { ptr, i32 } %46, i32 %45, 1
  resume { ptr, i32 } %47
}