; Function Attrs: mustprogress uwtable
define hidden void @_ZNK19OpenColorIO_v2_5dev12IndexMapping8validateEv(ptr noundef nonnull readonly align 8 captures(none) dereferenceable(88) %0) local_unnamed_addr #0 align 2 personality ptr @__gxx_personality_v0 {
  %2 = getelementptr inbounds nuw i8, ptr %0, i64 8
  %3 = load i64, ptr %2, align 8, !tbaa !6
  %4 = icmp ugt i64 %3, 1
  br i1 %4, label %.lr.ph, label %._crit_edge

.lr.ph:                                           ; preds = %1
  %5 = getelementptr inbounds nuw i8, ptr %0, i64 16
  br label %11

6:                                                ; preds = %11
  %7 = add i32 %.010, 1
  %8 = zext i32 %7 to i64
  %9 = load i64, ptr %2, align 8, !tbaa !6
  %10 = icmp ugt i64 %9, %8
  br i1 %10, label %11, label %._crit_edge, !llvm.loop !34

._crit_edge:                                      ; preds = %6, %1
  ret void

11:                                               ; preds = %.lr.ph, %6
  %12 = phi i64 [ 1, %.lr.ph ], [ %8, %6 ]
  %.010 = phi i32 [ 1, %.lr.ph ], [ %7, %6 ]
  tail call void @_ZNK19OpenColorIO_v2_5dev12IndexMapping13validateIndexEm(ptr noundef nonnull readonly align 8 dereferenceable(88) %0, i64 noundef %12)
  %13 = load ptr, ptr %5, align 8, !tbaa !10
  %14 = getelementptr inbounds nuw %"struct.std::pair", ptr %13, i64 %12
  %15 = load float, ptr %14, align 4, !tbaa !31
  %16 = getelementptr inbounds nuw i8, ptr %14, i64 4
  %17 = load float, ptr %16, align 4, !tbaa !33
  %18 = add i32 %.010, -1
  %19 = zext i32 %18 to i64
  tail call void @_ZNK19OpenColorIO_v2_5dev12IndexMapping13validateIndexEm(ptr noundef nonnull readonly align 8 dereferenceable(88) %0, i64 noundef %19)
  %20 = load ptr, ptr %5, align 8, !tbaa !10
  %21 = getelementptr inbounds nuw %"struct.std::pair", ptr %20, i64 %19
  %22 = load float, ptr %21, align 4, !tbaa !31
  %23 = getelementptr inbounds nuw i8, ptr %21, i64 4
  %24 = load float, ptr %23, align 4, !tbaa !33
  %25 = fcmp ugt float %15, %22
  %26 = fcmp ugt float %17, %24
  %or.cond = select i1 %25, i1 %26, i1 false
  br i1 %or.cond, label %6, label %27

27:                                               ; preds = %11
  %28 = tail call ptr @__cxa_allocate_exception(i64 16) #19
  invoke void @_ZN19OpenColorIO_v2_5dev9ExceptionC1EPKc(ptr noundef nonnull align 8 dereferenceable(16) %28, ptr noundef nonnull @.str.3)
          to label %29 unwind label %30

29:                                               ; preds = %27
  tail call void @__cxa_throw(ptr nonnull %28, ptr nonnull @_ZTIN19OpenColorIO_v2_5dev9ExceptionE, ptr nonnull @_ZN19OpenColorIO_v2_5dev9ExceptionD1Ev) #17
  unreachable

30:                                               ; preds = %27
  %31 = landingpad { ptr, i32 }
          cleanup
  tail call void @__cxa_free_exception(ptr nonnull %28) #19
  resume { ptr, i32 } %31
}